target datalayout = "e-m:e-p270:32:32-p271:32:32-p272:64:64-i64:64-i128:128-f80:128-n8:16:32:64-S128"
target triple = "x86_64-pc-linux-gnu"

%struct.FunctionCallInfoBaseData = type { ptr, ptr, ptr, i32, i8, i16, [0 x %struct.NullableDatum] }
%struct.NullableDatum = type { i64, i8 }
%struct.spgPickSplitIn = type { i32, ptr, i32 }
%struct.Point = type { double, double }
%struct.spgPickSplitOut = type { i8, i64, i32, ptr, ptr, ptr }

; Function Attrs: inlinehint nounwind uwtable
define internal i64 @PointerGetDatum(ptr noundef %0) #2 {
  %2 = alloca ptr, align 8
  store ptr %0, ptr %2, align 8
  %3 = load ptr, ptr %2, align 8
  %4 = ptrtoint ptr %3 to i64
  ret i64 %4
}

; Function Attrs: inlinehint nounwind uwtable
define internal i64 @PointPGetDatum(ptr noundef %0) #2 {
  %2 = alloca ptr, align 8
  store ptr %0, ptr %2, align 8
  %3 = load ptr, ptr %2, align 8
  %4 = call i64 @PointerGetDatum(ptr noundef %3)
  ret i64 %4
}

; Function Attrs: inlinehint nounwind uwtable
define internal ptr @DatumGetPointP(i64 noundef %0) #2 {
  %2 = alloca i64, align 8
  store i64 %0, ptr %2, align 8
  %3 = load i64, ptr %2, align 8
  %4 = call ptr @DatumGetPointer(i64 noundef %3)
  ret ptr %4
}

; Function Attrs: inlinehint nounwind uwtable
define internal ptr @DatumGetPointer(i64 noundef %0) #2 {
  %2 = alloca i64, align 8
  store i64 %0, ptr %2, align 8
  %3 = load i64, ptr %2, align 8
  %4 = inttoptr i64 %3 to ptr
  ret ptr %4
}

; Function Attrs: nounwind uwtable
define dso_local i64 @spg_quad_picksplit(ptr noundef %0) #0 {
  %2 = alloca ptr, align 8
  %3 = alloca ptr, align 8
  %4 = alloca ptr, align 8
  %5 = alloca i32, align 4
  %6 = alloca ptr, align 8
  %7 = alloca ptr, align 8
  %8 = alloca i32, align 4
  store ptr %0, ptr %2, align 8
  call void @llvm.lifetime.start.p0(i64 8, ptr %3) #6
  %9 = load ptr, ptr %2, align 8
  %10 = getelementptr inbounds nuw %struct.FunctionCallInfoBaseData, ptr %9, i32 0, i32 6
  %11 = getelementptr inbounds [0 x %struct.NullableDatum], ptr %10, i64 0, i64 0
  %12 = getelementptr inbounds nuw %struct.NullableDatum, ptr %11, i32 0, i32 0
  %13 = load i64, ptr %12, align 8
  %14 = call ptr @DatumGetPointer(i64 noundef %13)
  store ptr %14, ptr %3, align 8
  call void @llvm.lifetime.start.p0(i64 8, ptr %4) #6
  %15 = load ptr, ptr %2, align 8
  %16 = getelementptr inbounds nuw %struct.FunctionCallInfoBaseData, ptr %15, i32 0, i32 6
  %17 = getelementptr inbounds [0 x %struct.NullableDatum], ptr %16, i64 0, i64 1
  %18 = getelementptr inbounds nuw %struct.NullableDatum, ptr %17, i32 0, i32 0
  %19 = load i64, ptr %18, align 8
  %20 = call ptr @DatumGetPointer(i64 noundef %19)
  store ptr %20, ptr %4, align 8
  call void @llvm.lifetime.start.p0(i64 4, ptr %5) #6
  call void @llvm.lifetime.start.p0(i64 8, ptr %6) #6
  %21 = call ptr @palloc0(i64 noundef 16)
  store ptr %21, ptr %6, align 8
  store i32 0, ptr %5, align 4
  br label %22

22:                                               ; preds = %57, %1
  %23 = load i32, ptr %5, align 4
  %24 = load ptr, ptr %3, align 8
  %25 = getelementptr inbounds nuw %struct.spgPickSplitIn, ptr %24, i32 0, i32 0
  %26 = load i32, ptr %25, align 8
  %27 = icmp slt i32 %23, %26
  br i1 %27, label %28, label %60

28:                                               ; preds = %22
  %29 = load ptr, ptr %3, align 8
  %30 = getelementptr inbounds nuw %struct.spgPickSplitIn, ptr %29, i32 0, i32 1
  %31 = load ptr, ptr %30, align 8
  %32 = load i32, ptr %5, align 4
  %33 = sext i32 %32 to i64
  %34 = getelementptr inbounds i64, ptr %31, i64 %33
  %35 = load i64, ptr %34, align 8
  %36 = call ptr @DatumGetPointP(i64 noundef %35)
  %37 = getelementptr inbounds nuw %struct.Point, ptr %36, i32 0, i32 0
  %38 = load double, ptr %37, align 8
  %39 = load ptr, ptr %6, align 8
  %40 = getelementptr inbounds nuw %struct.Point, ptr %39, i32 0, i32 0
  %41 = load double, ptr %40, align 8
  %42 = fadd double %41, %38
  store double %42, ptr %40, align 8
  %43 = load ptr, ptr %3, align 8
  %44 = getelementptr inbounds nuw %struct.spgPickSplitIn, ptr %43, i32 0, i32 1
  %45 = load ptr, ptr %44, align 8
  %46 = load i32, ptr %5, align 4
  %47 = sext i32 %46 to i64
  %48 = getelementptr inbounds i64, ptr %45, i64 %47
  %49 = load i64, ptr %48, align 8
  %50 = call ptr @DatumGetPointP(i64 noundef %49)
  %51 = getelementptr inbounds nuw %struct.Point, ptr %50, i32 0, i32 1
  %52 = load double, ptr %51, align 8
  %53 = load ptr, ptr %6, align 8
  %54 = getelementptr inbounds nuw %struct.Point, ptr %53, i32 0, i32 1
  %55 = load double, ptr %54, align 8
  %56 = fadd double %55, %52
  store double %56, ptr %54, align 8
  br label %57

57:                                               ; preds = %28
  %58 = load i32, ptr %5, align 4
  %59 = add i32 %58, 1
  store i32 %59, ptr %5, align 4
  br label %22, !llvm.loop !6

60:                                               ; preds = %22
  %61 = load ptr, ptr %3, align 8
  %62 = getelementptr inbounds nuw %struct.spgPickSplitIn, ptr %61, i32 0, i32 0
  %63 = load i32, ptr %62, align 8
  %64 = sitofp i32 %63 to double
  %65 = load ptr, ptr %6, align 8
  %66 = getelementptr inbounds nuw %struct.Point, ptr %65, i32 0, i32 0
  %67 = load double, ptr %66, align 8
  %68 = fdiv double %67, %64
  store double %68, ptr %66, align 8
  %69 = load ptr, ptr %3, align 8
  %70 = getelementptr inbounds nuw %struct.spgPickSplitIn, ptr %69, i32 0, i32 0
  %71 = load i32, ptr %70, align 8
  %72 = sitofp i32 %71 to double
  %73 = load ptr, ptr %6, align 8
  %74 = getelementptr inbounds nuw %struct.Point, ptr %73, i32 0, i32 1
  %75 = load double, ptr %74, align 8
  %76 = fdiv double %75, %72
  store double %76, ptr %74, align 8
  %77 = load ptr, ptr %4, align 8
  %78 = getelementptr inbounds nuw %struct.spgPickSplitOut, ptr %77, i32 0, i32 0
  store i8 1, ptr %78, align 8
  %79 = load ptr, ptr %6, align 8
  %80 = call i64 @PointPGetDatum(ptr noundef %79)
  %81 = load ptr, ptr %4, align 8
  %82 = getelementptr inbounds nuw %struct.spgPickSplitOut, ptr %81, i32 0, i32 1
  store i64 %80, ptr %82, align 8
  %83 = load ptr, ptr %4, align 8
  %84 = getelementptr inbounds nuw %struct.spgPickSplitOut, ptr %83, i32 0, i32 2
  store i32 4, ptr %84, align 8
  %85 = load ptr, ptr %4, align 8
  %86 = getelementptr inbounds nuw %struct.spgPickSplitOut, ptr %85, i32 0, i32 3
  store ptr null, ptr %86, align 8
  %87 = load ptr, ptr %3, align 8
  %88 = getelementptr inbounds nuw %struct.spgPickSplitIn, ptr %87, i32 0, i32 0
  %89 = load i32, ptr %88, align 8
  %90 = sext i32 %89 to i64
  %91 = mul i64 4, %90
  %92 = call ptr @palloc(i64 noundef %91)
  %93 = load ptr, ptr %4, align 8
  %94 = getelementptr inbounds nuw %struct.spgPickSplitOut, ptr %93, i32 0, i32 4
  store ptr %92, ptr %94, align 8
  %95 = load ptr, ptr %3, align 8
  %96 = getelementptr inbounds nuw %struct.spgPickSplitIn, ptr %95, i32 0, i32 0
  %97 = load i32, ptr %96, align 8
  %98 = sext i32 %97 to i64
  %99 = mul i64 8, %98
  %100 = call ptr @palloc(i64 noundef %99)
  %101 = load ptr, ptr %4, align 8
  %102 = getelementptr inbounds nuw %struct.spgPickSplitOut, ptr %101, i32 0, i32 5
  store ptr %100, ptr %102, align 8
  store i32 0, ptr %5, align 4
  br label %103

103:                                              ; preds = %138, %60
  %104 = load i32, ptr %5, align 4
  %105 = load ptr, ptr %3, align 8
  %106 = getelementptr inbounds nuw %struct.spgPickSplitIn, ptr %105, i32 0, i32 0
  %107 = load i32, ptr %106, align 8
  %108 = icmp slt i32 %104, %107
  br i1 %108, label %109, label %141

109:                                              ; preds = %103
  call void @llvm.lifetime.start.p0(i64 8, ptr %7) #6
  %110 = load ptr, ptr %3, align 8
  %111 = getelementptr inbounds nuw %struct.spgPickSplitIn, ptr %110, i32 0, i32 1
  %112 = load ptr, ptr %111, align 8
  %113 = load i32, ptr %5, align 4
  %114 = sext i32 %113 to i64
  %115 = getelementptr inbounds i64, ptr %112, i64 %114
  %116 = load i64, ptr %115, align 8
  %117 = call ptr @DatumGetPointP(i64 noundef %116)
  store ptr %117, ptr %7, align 8
  call void @llvm.lifetime.start.p0(i64 4, ptr %8) #6
  %118 = load ptr, ptr %6, align 8
  %119 = load ptr, ptr %7, align 8
  %120 = call signext i16 @getQuadrant(ptr noundef %118, ptr noundef %119)
  %121 = sext i16 %120 to i32
  %122 = sub i32 %121, 1
  store i32 %122, ptr %8, align 4
  %123 = load ptr, ptr %7, align 8
  %124 = call i64 @PointPGetDatum(ptr noundef %123)
  %125 = load ptr, ptr %4, align 8
  %126 = getelementptr inbounds nuw %struct.spgPickSplitOut, ptr %125, i32 0, i32 5
  %127 = load ptr, ptr %126, align 8
  %128 = load i32, ptr %5, align 4
  %129 = sext i32 %128 to i64
  %130 = getelementptr inbounds i64, ptr %127, i64 %129
  store i64 %124, ptr %130, align 8
  %131 = load i32, ptr %8, align 4
  %132 = load ptr, ptr %4, align 8
  %133 = getelementptr inbounds nuw %struct.spgPickSplitOut, ptr %132, i32 0, i32 4
  %134 = load ptr, ptr %133, align 8
  %135 = load i32, ptr %5, align 4
  %136 = sext i32 %135 to i64
  %137 = getelementptr inbounds i32, ptr %134, i64 %136
  store i32 %131, ptr %137, align 4
  call void @llvm.lifetime.end.p0(i64 4, ptr %8) #6
  call void @llvm.lifetime.end.p0(i64 8, ptr %7) #6
  br label %138

138:                                              ; preds = %109
  %139 = load i32, ptr %5, align 4
  %140 = add i32 %139, 1
  store i32 %140, ptr %5, align 4
  br label %103, !llvm.loop !8

141:                                              ; preds = %103
  call void @llvm.lifetime.end.p0(i64 8, ptr %6) #6
  call void @llvm.lifetime.end.p0(i64 4, ptr %5) #6
  call void @llvm.lifetime.end.p0(i64 8, ptr %4) #6
  call void @llvm.lifetime.end.p0(i64 8, ptr %3) #6
  ret i64 0
}